target datalayout = "e-m:e-p270:32:32-p271:32:32-p272:64:64-i64:64-i128:128-f80:128-n8:16:32:64-S128"
target triple = "x86_64-pc-linux-gnu"

%struct.pmix_class_t = type { ptr, ptr, ptr, ptr, i32, i32, ptr, ptr, i64 }
%struct.pmix_tma = type { ptr, ptr, ptr, ptr, ptr, ptr, ptr, ptr }
%union.pthread_mutex_t = type { %struct.__pthread_mutex_s }
%struct.__pthread_mutex_s = type { i32, i32, i32, i32, i32, i16, i16, %struct.__pthread_internal_list }
%struct.__pthread_internal_list = type { ptr, ptr }
%union.pthread_cond_t = type { %struct.__pthread_cond_s }
%struct.__pthread_cond_s = type { %union.__atomic_wide_counter, %union.__atomic_wide_counter, [2 x i32], [2 x i32], i32, i32, [2 x i32] }
%union.__atomic_wide_counter = type { i64 }
%struct.pmix_list_t = type { %struct.pmix_object_t, %struct.pmix_list_item_t, i64 }
%struct.pmix_object_t = type { %union.pthread_mutex_t, ptr, i32, %struct.pmix_tma }
%struct.pmix_list_item_t = type { %struct.pmix_object_t, ptr, ptr, i32 }
%struct.pmix_pmdl_globals_t = type { %struct.pmix_lock_t, %struct.pmix_list_t, i8, i8 }
%struct.pmix_lock_t = type { i32, %struct.pmix_mutex_t, %union.pthread_cond_t, i8 }
%struct.pmix_mutex_t = type { %struct.pmix_object_t, %union.pthread_mutex_t }

@pmix_mutex_t_class = external global %struct.pmix_class_t, align 8
@pmix_class_init_epoch = external global i32, align 4
@pmix_list_t_class = external global %struct.pmix_class_t, align 8

; Function Attrs: inlinehint nounwind uwtable
define internal void @pmix_obj_run_constructors(ptr noundef %0) #2 {
  %2 = alloca ptr, align 8
  %3 = alloca ptr, align 8
  store ptr %0, ptr %2, align 8, !tbaa !38
  call void @llvm.lifetime.start.p0(i64 8, ptr %3) #9
  %4 = load ptr, ptr %2, align 8, !tbaa !38
  %5 = getelementptr inbounds nuw %struct.pmix_object_t, ptr %4, i32 0, i32 1
  %6 = load ptr, ptr %5, align 8, !tbaa !23
  %7 = getelementptr inbounds nuw %struct.pmix_class_t, ptr %6, i32 0, i32 6
  %8 = load ptr, ptr %7, align 8, !tbaa !54
  store ptr %8, ptr %3, align 8, !tbaa !53
  br label %9

9:                                                ; preds = %13, %1
  %10 = load ptr, ptr %3, align 8, !tbaa !53
  %11 = load ptr, ptr %10, align 8, !tbaa !53
  %12 = icmp ne ptr null, %11
  br i1 %12, label %13, label %19

13:                                               ; preds = %9
  %14 = load ptr, ptr %3, align 8, !tbaa !53
  %15 = load ptr, ptr %14, align 8, !tbaa !53
  %16 = load ptr, ptr %2, align 8, !tbaa !38
  call void %15(ptr noundef %16)
  %17 = load ptr, ptr %3, align 8, !tbaa !53
  %18 = getelementptr inbounds nuw ptr, ptr %17, i32 1
  store ptr %18, ptr %3, align 8, !tbaa !53
  br label %9, !llvm.loop !55

19:                                               ; preds = %9
  call void @llvm.lifetime.end.p0(i64 8, ptr %3) #9
  ret void
}

; Function Attrs: inlinehint nounwind uwtable
define internal void @pmix_obj_construct_tma(ptr noundef %0, ptr noundef %1) #2 {
  %3 = alloca ptr, align 8
  %4 = alloca ptr, align 8
  store ptr %0, ptr %3, align 8, !tbaa !38
  store ptr %1, ptr %4, align 8, !tbaa !43
  %5 = load ptr, ptr %4, align 8, !tbaa !43
  %6 = icmp eq ptr null, %5
  br i1 %6, label %7, label %32

7:                                                ; preds = %2
  %8 = load ptr, ptr %3, align 8, !tbaa !38
  %9 = getelementptr inbounds nuw %struct.pmix_object_t, ptr %8, i32 0, i32 3
  %10 = getelementptr inbounds nuw %struct.pmix_tma, ptr %9, i32 0, i32 0
  store ptr null, ptr %10, align 8, !tbaa !45
  %11 = load ptr, ptr %3, align 8, !tbaa !38
  %12 = getelementptr inbounds nuw %struct.pmix_object_t, ptr %11, i32 0, i32 3
  %13 = getelementptr inbounds nuw %struct.pmix_tma, ptr %12, i32 0, i32 1
  store ptr null, ptr %13, align 8, !tbaa !46
  %14 = load ptr, ptr %3, align 8, !tbaa !38
  %15 = getelementptr inbounds nuw %struct.pmix_object_t, ptr %14, i32 0, i32 3
  %16 = getelementptr inbounds nuw %struct.pmix_tma, ptr %15, i32 0, i32 2
  store ptr null, ptr %16, align 8, !tbaa !47
  %17 = load ptr, ptr %3, align 8, !tbaa !38
  %18 = getelementptr inbounds nuw %struct.pmix_object_t, ptr %17, i32 0, i32 3
  %19 = getelementptr inbounds nuw %struct.pmix_tma, ptr %18, i32 0, i32 3
  store ptr null, ptr %19, align 8, !tbaa !48
  %20 = load ptr, ptr %3, align 8, !tbaa !38
  %21 = getelementptr inbounds nuw %struct.pmix_object_t, ptr %20, i32 0, i32 3
  %22 = getelementptr inbounds nuw %struct.pmix_tma, ptr %21, i32 0, i32 4
  store ptr null, ptr %22, align 8, !tbaa !49
  %23 = load ptr, ptr %3, align 8, !tbaa !38
  %24 = getelementptr inbounds nuw %struct.pmix_object_t, ptr %23, i32 0, i32 3
  %25 = getelementptr inbounds nuw %struct.pmix_tma, ptr %24, i32 0, i32 5
  store ptr null, ptr %25, align 8, !tbaa !40
  %26 = load ptr, ptr %3, align 8, !tbaa !38
  %27 = getelementptr inbounds nuw %struct.pmix_object_t, ptr %26, i32 0, i32 3
  %28 = getelementptr inbounds nuw %struct.pmix_tma, ptr %27, i32 0, i32 6
  store ptr null, ptr %28, align 8, !tbaa !50
  %29 = load ptr, ptr %3, align 8, !tbaa !38
  %30 = getelementptr inbounds nuw %struct.pmix_object_t, ptr %29, i32 0, i32 3
  %31 = getelementptr inbounds nuw %struct.pmix_tma, ptr %30, i32 0, i32 7
  store ptr null, ptr %31, align 8, !tbaa !51
  br label %36

32:                                               ; preds = %2
  %33 = load ptr, ptr %3, align 8, !tbaa !38
  %34 = getelementptr inbounds nuw %struct.pmix_object_t, ptr %33, i32 0, i32 3
  %35 = load ptr, ptr %4, align 8, !tbaa !43
  call void @llvm.memcpy.p0.p0.i64(ptr align 8 %34, ptr align 8 %35, i64 64, i1 false), !tbaa.struct !52
  br label %36

36:                                               ; preds = %32, %7
  ret void
}

; Function Attrs: nounwind uwtable
define internal i32 @pmix_pmdl_open(i32 noundef %0) #1 {
  %2 = alloca i32, align 4
  store i32 %0, ptr %2, align 4, !tbaa !3
  store i8 1, ptr getelementptr inbounds nuw (%struct.pmix_pmdl_globals_t, ptr @pmix_pmdl_globals, i32 0, i32 2), align 8, !tbaa !7
  br label %3

3:                                                ; preds = %1
  br label %4

4:                                                ; preds = %3
  br label %5

5:                                                ; preds = %4
  br label %6

6:                                                ; preds = %5
  %7 = load i32, ptr @pmix_class_init_epoch, align 4, !tbaa !3
  %8 = load i32, ptr getelementptr inbounds nuw (%struct.pmix_class_t, ptr @pmix_mutex_t_class, i32 0, i32 4), align 8, !tbaa !20
  %9 = icmp ne i32 %7, %8
  br i1 %9, label %10, label %11

10:                                               ; preds = %6
  call void @pmix_class_initialize(ptr noundef @pmix_mutex_t_class)
  br label %11

11:                                               ; preds = %10, %6
  store ptr @pmix_mutex_t_class, ptr getelementptr inbounds nuw (%struct.pmix_object_t, ptr getelementptr inbounds nuw (%struct.pmix_lock_t, ptr @pmix_pmdl_globals, i32 0, i32 1), i32 0, i32 1), align 8, !tbaa !23
  store i32 1, ptr getelementptr inbounds nuw (%struct.pmix_object_t, ptr getelementptr inbounds nuw (%struct.pmix_lock_t, ptr @pmix_pmdl_globals, i32 0, i32 1), i32 0, i32 2), align 8, !tbaa !24
  call void @pmix_obj_construct_tma(ptr noundef getelementptr inbounds nuw (%struct.pmix_lock_t, ptr @pmix_pmdl_globals, i32 0, i32 1), ptr noundef null)
  call void @pmix_obj_run_constructors(ptr noundef getelementptr inbounds nuw (%struct.pmix_lock_t, ptr @pmix_pmdl_globals, i32 0, i32 1))
  br label %12

12:                                               ; preds = %11
  br label %13

13:                                               ; preds = %12
  br label %14

14:                                               ; preds = %13
  %15 = call i32 @pthread_cond_init(ptr noundef getelementptr inbounds nuw (%struct.pmix_lock_t, ptr @pmix_pmdl_globals, i32 0, i32 2), ptr noundef null) #9
  store volatile i8 1, ptr getelementptr inbounds nuw (%struct.pmix_lock_t, ptr @pmix_pmdl_globals, i32 0, i32 3), align 8, !tbaa !25
  br label %16

16:                                               ; preds = %14
  store volatile i8 0, ptr getelementptr inbounds nuw (%struct.pmix_lock_t, ptr @pmix_pmdl_globals, i32 0, i32 3), align 8, !tbaa !25
  br label %17

17:                                               ; preds = %16
  br label %18

18:                                               ; preds = %17
  br label %19

19:                                               ; preds = %18
  %20 = load i32, ptr @pmix_class_init_epoch, align 4, !tbaa !3
  %21 = load i32, ptr getelementptr inbounds nuw (%struct.pmix_class_t, ptr @pmix_list_t_class, i32 0, i32 4), align 8, !tbaa !20
  %22 = icmp ne i32 %20, %21
  br i1 %22, label %23, label %24

23:                                               ; preds = %19
  call void @pmix_class_initialize(ptr noundef @pmix_list_t_class)
  br label %24

24:                                               ; preds = %23, %19
  store ptr @pmix_list_t_class, ptr getelementptr inbounds nuw (%struct.pmix_object_t, ptr getelementptr inbounds nuw (%struct.pmix_pmdl_globals_t, ptr @pmix_pmdl_globals, i32 0, i32 1), i32 0, i32 1), align 8, !tbaa !23
  store i32 1, ptr getelementptr inbounds nuw (%struct.pmix_object_t, ptr getelementptr inbounds nuw (%struct.pmix_pmdl_globals_t, ptr @pmix_pmdl_globals, i32 0, i32 1), i32 0, i32 2), align 8, !tbaa !24
  call void @pmix_obj_construct_tma(ptr noundef getelementptr inbounds nuw (%struct.pmix_pmdl_globals_t, ptr @pmix_pmdl_globals, i32 0, i32 1), ptr noundef null)
  call void @pmix_obj_run_constructors(ptr noundef getelementptr inbounds nuw (%struct.pmix_pmdl_globals_t, ptr @pmix_pmdl_globals, i32 0, i32 1))
  br label %25

25:                                               ; preds = %24
  br label %26

26:                                               ; preds = %25
  br label %27

27:                                               ; preds = %26
  %28 = load i32, ptr %2, align 4, !tbaa !3
  %29 = call i32 @pmix_mca_base_framework_components_open(ptr noundef @pmix_pmdl_base_framework, i32 noundef %28)
  ret i32 %29
}