; Function Attrs: nounwind uwtable
define internal i32 @pmix_pmdl_open(i32 noundef %0) #1 {
  store i8 1, ptr getelementptr inbounds nuw (i8, ptr @pmix_pmdl_globals, i64 496), align 8, !tbaa !3
  %2 = load i32, ptr @pmix_class_init_epoch, align 4, !tbaa !19
  %3 = load i32, ptr getelementptr inbounds nuw (i8, ptr @pmix_mutex_t_class, i64 32), align 8, !tbaa !20
  %.not = icmp eq i32 %2, %3
  br i1 %.not, label %5, label %4

4:                                                ; preds = %1
  tail call void @pmix_class_initialize(ptr noundef nonnull @pmix_mutex_t_class) #8
  br label %5

5:                                                ; preds = %4, %1
  store ptr @pmix_mutex_t_class, ptr getelementptr inbounds nuw (i8, ptr @pmix_pmdl_globals, i64 48), align 8, !tbaa !23
  store i32 1, ptr getelementptr inbounds nuw (i8, ptr @pmix_pmdl_globals, i64 56), align 8, !tbaa !24
  tail call void @llvm.memset.p0.i64(ptr noundef nonnull align 8 dereferenceable(64) getelementptr inbounds nuw (i8, ptr @pmix_pmdl_globals, i64 64), i8 0, i64 64, i1 false)
  %6 = load ptr, ptr getelementptr inbounds nuw (i8, ptr @pmix_mutex_t_class, i64 40), align 8, !tbaa !25
  %7 = load ptr, ptr %6, align 8, !tbaa !26
  %.not6.i = icmp eq ptr %7, null
  br i1 %.not6.i, label %pmix_obj_run_constructors.exit, label %.lr.ph.i

.lr.ph.i:                                         ; preds = %5, %.lr.ph.i
  %8 = phi ptr [ %10, %.lr.ph.i ], [ %7, %5 ]
  %.07.i = phi ptr [ %9, %.lr.ph.i ], [ %6, %5 ]
  tail call void %8(ptr noundef nonnull getelementptr inbounds nuw (i8, ptr @pmix_pmdl_globals, i64 8)) #8
  %9 = getelementptr inbounds nuw i8, ptr %.07.i, i64 8
  %10 = load ptr, ptr %9, align 8, !tbaa !26
  %.not.i = icmp eq ptr %10, null
  br i1 %.not.i, label %pmix_obj_run_constructors.exit, label %.lr.ph.i, !llvm.loop !27

pmix_obj_run_constructors.exit:                   ; preds = %.lr.ph.i, %5
  %11 = tail call i32 @pthread_cond_init(ptr noundef nonnull getelementptr inbounds nuw (i8, ptr @pmix_pmdl_globals, i64 168), ptr noundef null) #8
  store volatile i8 1, ptr getelementptr inbounds nuw (i8, ptr @pmix_pmdl_globals, i64 216), align 8, !tbaa !29
  store volatile i8 0, ptr getelementptr inbounds nuw (i8, ptr @pmix_pmdl_globals, i64 216), align 8, !tbaa !29
  %12 = load i32, ptr @pmix_class_init_epoch, align 4, !tbaa !19
  %13 = load i32, ptr getelementptr inbounds nuw (i8, ptr @pmix_list_t_class, i64 32), align 8, !tbaa !20
  %.not1 = icmp eq i32 %12, %13
  br i1 %.not1, label %15, label %14

14:                                               ; preds = %pmix_obj_run_constructors.exit
  tail call void @pmix_class_initialize(ptr noundef nonnull @pmix_list_t_class) #8
  br label %15

15:                                               ; preds = %14, %pmix_obj_run_constructors.exit
  store ptr @pmix_list_t_class, ptr getelementptr inbounds nuw (i8, ptr @pmix_pmdl_globals, i64 264), align 8, !tbaa !23
  store i32 1, ptr getelementptr inbounds nuw (i8, ptr @pmix_pmdl_globals, i64 272), align 8, !tbaa !24
  tail call void @llvm.memset.p0.i64(ptr noundef nonnull align 8 dereferenceable(64) getelementptr inbounds nuw (i8, ptr @pmix_pmdl_globals, i64 280), i8 0, i64 64, i1 false)
  %16 = load ptr, ptr getelementptr inbounds nuw (i8, ptr @pmix_list_t_class, i64 40), align 8, !tbaa !25
  %17 = load ptr, ptr %16, align 8, !tbaa !26
  %.not6.i2 = icmp eq ptr %17, null
  br i1 %.not6.i2, label %pmix_obj_run_constructors.exit6, label %.lr.ph.i3

.lr.ph.i3:                                        ; preds = %15, %.lr.ph.i3
  %18 = phi ptr [ %20, %.lr.ph.i3 ], [ %17, %15 ]
  %.07.i4 = phi ptr [ %19, %.lr.ph.i3 ], [ %16, %15 ]
  tail call void %18(ptr noundef nonnull getelementptr inbounds nuw (i8, ptr @pmix_pmdl_globals, i64 224)) #8
  %19 = getelementptr inbounds nuw i8, ptr %.07.i4, i64 8
  %20 = load ptr, ptr %19, align 8, !tbaa !26
  %.not.i5 = icmp eq ptr %20, null
  br i1 %.not.i5, label %pmix_obj_run_constructors.exit6, label %.lr.ph.i3, !llvm.loop !27

pmix_obj_run_constructors.exit6:                  ; preds = %.lr.ph.i3, %15
  %21 = tail call i32 @pmix_mca_base_framework_components_open(ptr noundef nonnull @pmix_pmdl_base_framework, i32 noundef %0) #8
  ret i32 %21
}